target datalayout = "e-m:e-p270:32:32-p271:32:32-p272:64:64-i64:64-i128:128-f80:128-n8:16:32:64-S128"
target triple = "x86_64-pc-linux-gnu"

%"struct.google::protobuf::internal::ExtensionInfo" = type { ptr, i32, i8, i8, i8, %union.anon, ptr }
%union.anon = type { %"struct.google::protobuf::internal::ExtensionInfo::EnumValidityCheck" }
%"struct.google::protobuf::internal::ExtensionInfo::EnumValidityCheck" = type { ptr, ptr }
%"class.google::protobuf::internal::LogMessage" = type { i32, ptr, i32, %"class.std::__cxx11::basic_string" }
%"class.std::__cxx11::basic_string" = type { %"struct.std::__cxx11::basic_string<char>::_Alloc_hider", i64, %union.anon.0 }
%"struct.std::__cxx11::basic_string<char>::_Alloc_hider" = type { ptr }
%union.anon.0 = type { i64, [8 x i8] }
%"class.google::protobuf::internal::LogFinisher" = type { i8 }
%"struct.google::protobuf::internal::ExtensionInfo::MessageInfo" = type { ptr }

@.str = private unnamed_addr constant [146 x i8] c"generated/home/dtcxzyw/WorkSpace/Projects/compilers/llvm-opt-benchmark/bench/opencv/opencv/3rdparty/protobuf/src/google/protobuf/extension_set.cc\00", align 1
@.str.5 = private unnamed_addr constant [91 x i8] c"CHECK failed: type == WireFormatLite::TYPE_MESSAGE || type == WireFormatLite::TYPE_GROUP: \00", align 1

; Function Attrs: mustprogress nounwind uwtable
define linkonce_odr hidden void @_ZN6google8protobuf8internal13ExtensionInfoC2EPKNS0_11MessageLiteEihbb(ptr noundef nonnull align 8 dereferenceable(40) %0, ptr noundef %1, i32 noundef %2, i8 noundef zeroext %3, i1 noundef zeroext %4, i1 noundef zeroext %5) unnamed_addr #4 comdat align 2 {
  %7 = alloca ptr, align 8
  %8 = alloca ptr, align 8
  %9 = alloca i32, align 4
  %10 = alloca i8, align 1
  %11 = alloca i8, align 1
  %12 = alloca i8, align 1
  store ptr %0, ptr %7, align 8, !tbaa !12
  store ptr %1, ptr %8, align 8, !tbaa !19
  store i32 %2, ptr %9, align 4, !tbaa !10
  store i8 %3, ptr %10, align 1, !tbaa !20
  %13 = zext i1 %4 to i8
  store i8 %13, ptr %11, align 1, !tbaa !21
  %14 = zext i1 %5 to i8
  store i8 %14, ptr %12, align 1, !tbaa !21
  %15 = load ptr, ptr %7, align 8
  %16 = getelementptr inbounds nuw %"struct.google::protobuf::internal::ExtensionInfo", ptr %15, i32 0, i32 0
  %17 = load ptr, ptr %8, align 8, !tbaa !19
  store ptr %17, ptr %16, align 8, !tbaa !27
  %18 = getelementptr inbounds nuw %"struct.google::protobuf::internal::ExtensionInfo", ptr %15, i32 0, i32 1
  %19 = load i32, ptr %9, align 4, !tbaa !10
  store i32 %19, ptr %18, align 8, !tbaa !29
  %20 = getelementptr inbounds nuw %"struct.google::protobuf::internal::ExtensionInfo", ptr %15, i32 0, i32 2
  %21 = load i8, ptr %10, align 1, !tbaa !20
  store i8 %21, ptr %20, align 4, !tbaa !32
  %22 = getelementptr inbounds nuw %"struct.google::protobuf::internal::ExtensionInfo", ptr %15, i32 0, i32 3
  %23 = load i8, ptr %11, align 1, !tbaa !21, !range !30, !noundef !31
  %24 = trunc i8 %23 to i1
  %25 = zext i1 %24 to i8
  store i8 %25, ptr %22, align 1, !tbaa !33
  %26 = getelementptr inbounds nuw %"struct.google::protobuf::internal::ExtensionInfo", ptr %15, i32 0, i32 4
  %27 = load i8, ptr %12, align 1, !tbaa !21, !range !30, !noundef !31
  %28 = trunc i8 %27 to i1
  %29 = zext i1 %28 to i8
  store i8 %29, ptr %26, align 2, !tbaa !34
  %30 = getelementptr inbounds nuw %"struct.google::protobuf::internal::ExtensionInfo", ptr %15, i32 0, i32 5
  call void @llvm.memset.p0.i64(ptr align 8 %30, i8 0, i64 16, i1 false)
  %31 = getelementptr inbounds nuw %"struct.google::protobuf::internal::ExtensionInfo", ptr %15, i32 0, i32 6
  store ptr null, ptr %31, align 8, !tbaa !35
  ret void
}

; Function Attrs: mustprogress uwtable
define hidden void @_ZN6google8protobuf8internal12ExtensionSet24RegisterMessageExtensionEPKNS0_11MessageLiteEihbbS5_(ptr noundef %0, i32 noundef %1, i8 noundef zeroext %2, i1 noundef zeroext %3, i1 noundef zeroext %4, ptr noundef %5) #6 align 2 personality ptr @__gxx_personality_v0 {
  %7 = alloca ptr, align 8
  %8 = alloca i32, align 4
  %9 = alloca i8, align 1
  %10 = alloca i8, align 1
  %11 = alloca i8, align 1
  %12 = alloca ptr, align 8
  %13 = alloca %"class.google::protobuf::internal::LogMessage", align 8
  %14 = alloca i1, align 1
  %15 = alloca i1, align 1
  %16 = alloca ptr, align 8
  %17 = alloca i32, align 4
  %18 = alloca %"class.google::protobuf::internal::LogFinisher", align 1
  %19 = alloca %"struct.google::protobuf::internal::ExtensionInfo", align 8
  %20 = alloca %"struct.google::protobuf::internal::ExtensionInfo::MessageInfo", align 8
  store ptr %0, ptr %7, align 8, !tbaa !19
  store i32 %1, ptr %8, align 4, !tbaa !10
  store i8 %2, ptr %9, align 1, !tbaa !20
  %21 = zext i1 %3 to i8
  store i8 %21, ptr %10, align 1, !tbaa !21
  %22 = zext i1 %4 to i8
  store i8 %22, ptr %11, align 1, !tbaa !21
  store ptr %5, ptr %12, align 8, !tbaa !19
  %23 = load i8, ptr %9, align 1, !tbaa !20
  %24 = zext i8 %23 to i32
  %25 = icmp eq i32 %24, 11
  store i1 false, ptr %14, align 1
  store i1 false, ptr %15, align 1
  call void @llvm.lifetime.start.p0(i64 1, ptr %18) #3
  br i1 %25, label %30, label %26

26:                                               ; preds = %6
  %27 = load i8, ptr %9, align 1, !tbaa !20
  %28 = zext i8 %27 to i32
  %29 = icmp eq i32 %28, 10
  br i1 %29, label %30, label %31

30:                                               ; preds = %26, %6
  br label %35

31:                                               ; preds = %26
  call void @llvm.lifetime.start.p0(i64 56, ptr %13) #3
  store i1 true, ptr %14, align 1
  call void @_ZN6google8protobuf8internal10LogMessageC1ENS0_8LogLevelEPKci(ptr noundef nonnull align 8 dereferenceable(56) %13, i32 noundef 3, ptr noundef @.str, i32 noundef 193)
  store i1 true, ptr %15, align 1
  %32 = invoke noundef nonnull align 8 dereferenceable(56) ptr @_ZN6google8protobuf8internal10LogMessagelsEPKc(ptr noundef nonnull align 8 dereferenceable(56) %13, ptr noundef @.str.5)
          to label %33 unwind label %52

33:                                               ; preds = %31
  invoke void @_ZN6google8protobuf8internal11LogFinisheraSERNS1_10LogMessageE(ptr noundef nonnull align 1 dereferenceable(1) %18, ptr noundef nonnull align 8 dereferenceable(56) %32)
          to label %34 unwind label %56

34:                                               ; preds = %33
  br label %35

35:                                               ; preds = %34, %30
  call void @llvm.lifetime.end.p0(i64 1, ptr %18) #3
  %36 = load i1, ptr %15, align 1
  br i1 %36, label %37, label %38

37:                                               ; preds = %35
  call void @_ZN6google8protobuf8internal10LogMessageD1Ev(ptr noundef nonnull align 8 dereferenceable(56) %13) #3
  br label %38

38:                                               ; preds = %37, %35
  %39 = load i1, ptr %14, align 1
  br i1 %39, label %40, label %41

40:                                               ; preds = %38
  call void @llvm.lifetime.end.p0(i64 56, ptr %13) #3
  br label %41

41:                                               ; preds = %40, %38
  call void @llvm.lifetime.start.p0(i64 40, ptr %19) #3
  %42 = load ptr, ptr %7, align 8, !tbaa !19
  %43 = load i32, ptr %8, align 4, !tbaa !10
  %44 = load i8, ptr %9, align 1, !tbaa !20
  %45 = load i8, ptr %10, align 1, !tbaa !21, !range !30, !noundef !31
  %46 = trunc i8 %45 to i1
  %47 = load i8, ptr %11, align 1, !tbaa !21, !range !30, !noundef !31
  %48 = trunc i8 %47 to i1
  call void @_ZN6google8protobuf8internal13ExtensionInfoC2EPKNS0_11MessageLiteEihbb(ptr noundef nonnull align 8 dereferenceable(40) %19, ptr noundef %42, i32 noundef %43, i8 noundef zeroext %44, i1 noundef zeroext %46, i1 noundef zeroext %48)
  call void @llvm.lifetime.start.p0(i64 8, ptr %20) #3
  %49 = getelementptr inbounds nuw %"struct.google::protobuf::internal::ExtensionInfo::MessageInfo", ptr %20, i32 0, i32 0
  %50 = load ptr, ptr %12, align 8, !tbaa !19
  store ptr %50, ptr %49, align 8, !tbaa !40
  %51 = getelementptr inbounds nuw %"struct.google::protobuf::internal::ExtensionInfo", ptr %19, i32 0, i32 5
  call void @llvm.memcpy.p0.p0.i64(ptr align 8 %51, ptr align 8 %20, i64 8, i1 false), !tbaa.struct !42
  call void @llvm.lifetime.end.p0(i64 8, ptr %20) #3
  call void @_ZN6google8protobuf8internal12_GLOBAL__N_18RegisterERKNS1_13ExtensionInfoE(ptr noundef nonnull align 8 dereferenceable(40) %19)
  call void @llvm.lifetime.end.p0(i64 40, ptr %19) #3
  ret void

52:                                               ; preds = %31
  %53 = landingpad { ptr, i32 }
          cleanup
  %54 = extractvalue { ptr, i32 } %53, 0
  store ptr %54, ptr %16, align 8
  %55 = extractvalue { ptr, i32 } %53, 1
  store i32 %55, ptr %17, align 4
  br label %60

56:                                               ; preds = %33
  %57 = landingpad { ptr, i32 }
          cleanup
  %58 = extractvalue { ptr, i32 } %57, 0
  store ptr %58, ptr %16, align 8
  %59 = extractvalue { ptr, i32 } %57, 1
  store i32 %59, ptr %17, align 4
  call void @llvm.lifetime.end.p0(i64 1, ptr %18) #3
  br label %60

60:                                               ; preds = %56, %52
  %61 = load i1, ptr %15, align 1
  br i1 %61, label %62, label %63

62:                                               ; preds = %60
  call void @_ZN6google8protobuf8internal10LogMessageD1Ev(ptr noundef nonnull align 8 dereferenceable(56) %13) #3
  br label %63

63:                                               ; preds = %62, %60
  %64 = load i1, ptr %14, align 1
  br i1 %64, label %65, label %66

65:                                               ; preds = %63
  call void @llvm.lifetime.end.p0(i64 56, ptr %13) #3
  br label %66

66:                                               ; preds = %65, %63
  br label %67

67:                                               ; preds = %66
  %68 = load ptr, ptr %16, align 8
  %69 = load i32, ptr %17, align 4
  %70 = insertvalue { ptr, i32 } poison, ptr %68, 0
  %71 = insertvalue { ptr, i32 } %70, i32 %69, 1
  resume { ptr, i32 } %71
}