; Function Attrs: mustprogress uwtable
define hidden void @_ZN6google8protobuf8internal12ExtensionSet24RegisterMessageExtensionEPKNS0_11MessageLiteEihbbS5_(ptr noundef %0, i32 noundef %1, i8 noundef zeroext %2, i1 noundef zeroext %3, i1 noundef zeroext %4, ptr noundef %5) local_unnamed_addr #8 align 2 personality ptr @__gxx_personality_v0 {
  %7 = alloca %"class.google::protobuf::internal::LogMessage", align 8
  %8 = alloca %"class.google::protobuf::internal::LogFinisher", align 1
  %9 = alloca %"struct.google::protobuf::internal::ExtensionInfo", align 8
  call void @llvm.lifetime.start.p0(i64 1, ptr nonnull %8) #30
  %10 = and i8 %2, -2
  %or.cond.not = icmp eq i8 %10, 10
  br i1 %or.cond.not, label %.thread, label %11

11:                                               ; preds = %6
  call void @llvm.lifetime.start.p0(i64 56, ptr nonnull %7) #30
  call void @_ZN6google8protobuf8internal10LogMessageC1ENS0_8LogLevelEPKci(ptr noundef nonnull align 8 dereferenceable(56) %7, i32 noundef 3, ptr noundef nonnull @.str, i32 noundef 193)
  %12 = invoke noundef nonnull align 8 dereferenceable(56) ptr @_ZN6google8protobuf8internal10LogMessagelsEPKc(ptr noundef nonnull align 8 dereferenceable(56) %7, ptr noundef nonnull @.str.5)
          to label %13 unwind label %23

13:                                               ; preds = %11
  invoke void @_ZN6google8protobuf8internal11LogFinisheraSERNS1_10LogMessageE(ptr noundef nonnull align 1 dereferenceable(1) %8, ptr noundef nonnull align 8 dereferenceable(56) %12)
          to label %14 unwind label %25

.thread:                                          ; preds = %6
  call void @llvm.lifetime.end.p0(i64 1, ptr nonnull %8) #30
  br label %.critedge20

14:                                               ; preds = %13
  call void @llvm.lifetime.end.p0(i64 1, ptr nonnull %8) #30
  call void @_ZN6google8protobuf8internal10LogMessageD1Ev(ptr noundef nonnull align 8 dereferenceable(56) %7) #30
  call void @llvm.lifetime.end.p0(i64 56, ptr nonnull %7) #30
  br label %.critedge20

.critedge20:                                      ; preds = %.thread, %14
  call void @llvm.lifetime.start.p0(i64 40, ptr nonnull %9) #30
  %15 = zext i1 %3 to i8
  %16 = zext i1 %4 to i8
  store ptr %0, ptr %9, align 8, !tbaa !22
  %17 = getelementptr inbounds nuw i8, ptr %9, i64 8
  store i32 %1, ptr %17, align 8, !tbaa !41
  %18 = getelementptr inbounds nuw i8, ptr %9, i64 12
  store i8 %2, ptr %18, align 4, !tbaa !42
  %19 = getelementptr inbounds nuw i8, ptr %9, i64 13
  store i8 %15, ptr %19, align 1, !tbaa !43
  %20 = getelementptr inbounds nuw i8, ptr %9, i64 14
  store i8 %16, ptr %20, align 2, !tbaa !44
  %21 = getelementptr inbounds nuw i8, ptr %9, i64 16
  %22 = getelementptr inbounds nuw i8, ptr %9, i64 24
  call void @llvm.memset.p0.i64(ptr noundef nonnull align 8 dereferenceable(16) %22, i8 0, i64 16, i1 false)
  store ptr %5, ptr %21, align 8, !tbaa !36
  call fastcc void @_ZN6google8protobuf8internal12_GLOBAL__N_18RegisterERKNS1_13ExtensionInfoE(ptr noundef nonnull align 8 dereferenceable(40) %9)
  call void @llvm.lifetime.end.p0(i64 40, ptr nonnull %9) #30
  ret void

23:                                               ; preds = %11
  %24 = landingpad { ptr, i32 }
          cleanup
  br label %27

25:                                               ; preds = %13
  %26 = landingpad { ptr, i32 }
          cleanup
  call void @llvm.lifetime.end.p0(i64 1, ptr nonnull %8) #30
  br label %27

27:                                               ; preds = %23, %25
  %.pn = phi { ptr, i32 } [ %26, %25 ], [ %24, %23 ]
  call void @_ZN6google8protobuf8internal10LogMessageD1Ev(ptr noundef nonnull align 8 dereferenceable(56) %7) #30
  call void @llvm.lifetime.end.p0(i64 56, ptr nonnull %7) #30
  resume { ptr, i32 } %.pn
}